target datalayout = "e-m:e-p270:32:32-p271:32:32-p272:64:64-i64:64-i128:128-f80:128-n8:16:32:64-S128"
target triple = "x86_64-unknown-linux-gnu"

%"class.sat::literal" = type { i32 }
%class.symbol = type { ptr }
%"class.euf::th_solver" = type { %"class.sat::extension", %"class.euf::th_model_builder", %"class.euf::th_decompile", %"class.euf::th_internalizer", ptr }
%"class.sat::extension" = type { ptr, i8, i32, %class.symbol, ptr }
%"class.euf::th_model_builder" = type { ptr }
%"class.euf::th_decompile" = type { ptr }
%"class.euf::th_internalizer" = type { ptr, %class.ptr_vector, %class.svector }
%class.svector = type { %class.vector.0 }
%class.vector.0 = type { ptr }
%class.ptr_vector = type { %class.vector }
%class.vector = type { ptr }

@_ZN3satL12null_literalE = internal global %"class.sat::literal" zeroinitializer, align 4

; Function Attrs: mustprogress nounwind uwtable
define linkonce_odr hidden void @_ZN3sat7literal3negEv(ptr noundef nonnull align 4 dereferenceable(4) %this) #4 comdat align 2 {
entry:
  %this.addr = alloca ptr, align 8
  store ptr %this, ptr %this.addr, align 8
  %this1 = load ptr, ptr %this.addr, align 8
  %m_val = getelementptr inbounds %"class.sat::literal", ptr %this1, i32 0, i32 0
  %0 = load i32, ptr %m_val, align 4
  %xor = xor i32 %0, 1
  %m_val2 = getelementptr inbounds %"class.sat::literal", ptr %this1, i32 0, i32 0
  store i32 %xor, ptr %m_val2, align 4
  ret void
}

; Function Attrs: mustprogress uwtable
define hidden i32 @_ZN3fpa6solver11internalizeEP4exprbb(ptr noundef nonnull align 8 dereferenceable(1556) %this, ptr noundef %e, i1 noundef zeroext %sign, i1 noundef zeroext %root) unnamed_addr #5 align 2 {
entry:
  %retval = alloca %"class.sat::literal", align 4
  %this.addr = alloca ptr, align 8
  %e.addr = alloca ptr, align 8
  %sign.addr = alloca i8, align 1
  %root.addr = alloca i8, align 1
  store ptr %this, ptr %this.addr, align 8
  store ptr %e, ptr %e.addr, align 8
  %frombool = zext i1 %sign to i8
  store i8 %frombool, ptr %sign.addr, align 1
  %frombool1 = zext i1 %root to i8
  store i8 %frombool1, ptr %root.addr, align 1
  %this2 = load ptr, ptr %this.addr, align 8
  %add.ptr = getelementptr inbounds i8, ptr %this2, i64 48
  %m = getelementptr inbounds %"class.euf::th_solver", ptr %this2, i32 0, i32 4
  %0 = load ptr, ptr %m, align 8
  %1 = load ptr, ptr %e.addr, align 8
  %2 = load i8, ptr %sign.addr, align 1
  %tobool = trunc i8 %2 to i1
  %3 = load i8, ptr %root.addr, align 1
  %tobool3 = trunc i8 %3 to i1
  %call = call noundef zeroext i1 @_ZN3euf15th_internalizer9visit_recER11ast_managerP4exprbb(ptr noundef nonnull align 8 dereferenceable(24) %add.ptr, ptr noundef nonnull align 8 dereferenceable(976) %0, ptr noundef %1, i1 noundef zeroext %tobool, i1 noundef zeroext %tobool3)
  br i1 %call, label %if.end, label %if.then

if.then:                                          ; preds = %entry
  call void @llvm.memcpy.p0.p0.i64(ptr align 4 %retval, ptr align 4 @_ZN3satL12null_literalE, i64 4, i1 false)
  br label %return

if.end:                                           ; preds = %entry
  %4 = load ptr, ptr %e.addr, align 8
  %call4 = call i32 @_ZNK3euf13th_euf_solver12expr2literalEP4expr(ptr noundef nonnull align 8 dereferenceable(108) %this2, ptr noundef %4)
  %coerce.dive = getelementptr inbounds %"class.sat::literal", ptr %retval, i32 0, i32 0
  store i32 %call4, ptr %coerce.dive, align 4
  %5 = load i8, ptr %sign.addr, align 1
  %tobool5 = trunc i8 %5 to i1
  br i1 %tobool5, label %if.then6, label %if.end7

if.then6:                                         ; preds = %if.end
  call void @_ZN3sat7literal3negEv(ptr noundef nonnull align 4 dereferenceable(4) %retval)
  br label %if.end7

if.end7:                                          ; preds = %if.then6, %if.end
  br label %return

return:                                           ; preds = %if.end7, %if.then
  %coerce.dive8 = getelementptr inbounds %"class.sat::literal", ptr %retval, i32 0, i32 0
  %6 = load i32, ptr %coerce.dive8, align 4
  ret i32 %6
}