; Function Attrs: mustprogress uwtable
define hidden i32 @_ZN3fpa6solver11internalizeEP4exprbb(ptr noundef nonnull align 8 dereferenceable(1556) %this, ptr noundef %e, i1 noundef zeroext %sign, i1 noundef zeroext %root) unnamed_addr #3 align 2 {
entry:
  %add.ptr = getelementptr inbounds i8, ptr %this, i64 48
  %m = getelementptr inbounds i8, ptr %this, i64 72
  %0 = load ptr, ptr %m, align 8
  %call = tail call noundef zeroext i1 @_ZN3euf15th_internalizer9visit_recER11ast_managerP4exprbb(ptr noundef nonnull align 8 dereferenceable(24) %add.ptr, ptr noundef nonnull align 8 dereferenceable(976) %0, ptr noundef %e, i1 noundef zeroext %sign, i1 noundef zeroext %root)
  br i1 %call, label %if.end, label %if.then

if.then:                                          ; preds = %entry
  %.b = load i1, ptr @_ZN3satL12null_literalE.0, align 4
  %1 = select i1 %.b, i32 -2, i32 0
  br label %return

if.end:                                           ; preds = %entry
  %call4 = tail call i32 @_ZNK3euf13th_euf_solver12expr2literalEP4expr(ptr noundef nonnull align 8 dereferenceable(108) %this, ptr noundef %e)
  %xor.i = zext i1 %sign to i32
  %spec.select = xor i32 %call4, %xor.i
  br label %return

return:                                           ; preds = %if.end, %if.then
  %retval.sroa.0.0 = phi i32 [ %1, %if.then ], [ %spec.select, %if.end ]
  ret i32 %retval.sroa.0.0
}